; Function Attrs: mustprogress nounwind uwtable
define internal void @_ZN5faiss12_GLOBAL__N_124NegativeDistanceComputerD0Ev(ptr noundef nonnull align 8 dereferenceable(16) %0) unnamed_addr #0 align 2 {
  store ptr getelementptr inbounds ({ [8 x ptr] }, ptr @_ZTVN5faiss12_GLOBAL__N_124NegativeDistanceComputerE, i64 0, i32 0, i64 2), ptr %0, align 8
  %2 = getelementptr inbounds i8, ptr %0, i64 8
  %3 = load ptr, ptr %2, align 8
  %4 = icmp eq ptr %3, null
  br i1 %4, label %_ZN5faiss12_GLOBAL__N_124NegativeDistanceComputerD2Ev.exit, label %5

5:                                                ; preds = %1
  %6 = load ptr, ptr %3, align 8
  %7 = getelementptr inbounds i8, ptr %6, i64 40
  %8 = load ptr, ptr %7, align 8
  tail call void %8(ptr noundef nonnull align 8 dereferenceable(8) %3) #8
  br label %_ZN5faiss12_GLOBAL__N_124NegativeDistanceComputerD2Ev.exit

_ZN5faiss12_GLOBAL__N_124NegativeDistanceComputerD2Ev.exit: ; preds = %1, %5
  tail call void @_ZdlPv(ptr noundef nonnull %0) #15
  ret void
}